target datalayout = "e-m:e-p270:32:32-p271:32:32-p272:64:64-i64:64-i128:128-f80:128-n8:16:32:64-S128"
target triple = "x86_64-pc-linux-gnu"

%struct.pmi2_job_info = type { %struct.slurm_step_id_msg, i32, i32, i32, i32, i32, ptr, i32, i32, ptr, ptr, ptr, ptr, ptr, ptr, ptr, ptr }
%struct.slurm_step_id_msg = type { i64, i32, i32, i32 }
%struct.pmix_ring_msg = type { i32, ptr, ptr }

@pmix_stepd_rank = internal global i32 -1, align 4
@pmix_stepd_width = internal global i32 16, align 4
@pmix_stepd_children = internal global i32 0, align 4
@pmix_app_children = internal global i32 0, align 4
@.str = private unnamed_addr constant [22 x i8] c"SLURM_PMIX_RING_WIDTH\00", align 1
@.str.1 = private unnamed_addr constant [52 x i8] c"%s: %s: Invalid %s value detected (%d), using (%d).\00", align 1
@plugin_type = external constant [0 x i8], align 1
@__func__.pmix_ring_init = private unnamed_addr constant [15 x i8] c"pmix_ring_init\00", align 1
@pmix_stepd_hostlist = internal global ptr null, align 8
@pmix_stepd_ranks = internal global i32 0, align 4
@pmix_ring_children = internal global i32 0, align 4
@.str.2 = private unnamed_addr constant [7 x i8] c"ring.c\00", align 1
@pmix_ring_msgs = internal global ptr null, align 8
@pmix_ring_count = internal global i32 0, align 4

; Function Attrs: inlinehint nounwind willreturn memory(read) uwtable
define available_externally i32 @atoi(ptr noundef nonnull %0) #3 {
  %2 = alloca ptr, align 8
  store ptr %0, ptr %2, align 8
  %3 = load ptr, ptr %2, align 8
  %4 = call i64 @strtol(ptr noundef %3, ptr noundef null, i32 noundef 10) #6
  %5 = trunc i64 %4 to i32
  ret i32 %5
}

; Function Attrs: nounwind uwtable
define dso_local i32 @pmix_ring_init(ptr noundef %0, ptr noundef %1) #0 {
  %3 = alloca ptr, align 8
  %4 = alloca ptr, align 8
  %5 = alloca i32, align 4
  %6 = alloca i32, align 4
  %7 = alloca ptr, align 8
  %8 = alloca i32, align 4
  %9 = alloca i32, align 4
  %10 = alloca i32, align 4
  store ptr %0, ptr %3, align 8
  store ptr %1, ptr %4, align 8
  call void @llvm.lifetime.start.p0(i64 4, ptr %5) #6
  call void @llvm.lifetime.start.p0(i64 4, ptr %6) #6
  store i32 0, ptr %6, align 4
  call void @llvm.lifetime.start.p0(i64 8, ptr %7) #6
  %11 = load ptr, ptr %4, align 8
  %12 = load ptr, ptr %11, align 8
  %13 = call ptr @slurm_getenvp(ptr noundef %12, ptr noundef @.str)
  store ptr %13, ptr %7, align 8
  %14 = load ptr, ptr %7, align 8
  %15 = icmp ne ptr %14, null
  br i1 %15, label %16, label %37

16:                                               ; preds = %2
  call void @llvm.lifetime.start.p0(i64 4, ptr %8) #6
  %17 = load ptr, ptr %7, align 8
  %18 = call i32 @atoi(ptr noundef %17) #7
  store i32 %18, ptr %8, align 4
  %19 = load i32, ptr %8, align 4
  %20 = icmp sge i32 %19, 2
  br i1 %20, label %21, label %23

21:                                               ; preds = %16
  %22 = load i32, ptr %8, align 4
  store i32 %22, ptr @pmix_stepd_width, align 4
  br label %36

23:                                               ; preds = %16
  br label %24

24:                                               ; preds = %23
  br label %25

25:                                               ; preds = %24
  %26 = call i32 @slurm_get_log_level()
  %27 = icmp sge i32 %26, 3
  br i1 %27, label %28, label %31

28:                                               ; preds = %25
  %29 = load i32, ptr %8, align 4
  %30 = load i32, ptr @pmix_stepd_width, align 4
  call void (i32, ptr, ...) @slurm_log_var(i32 noundef 3, ptr noundef @.str.1, ptr noundef @plugin_type, ptr noundef @__func__.pmix_ring_init, ptr noundef @.str, i32 noundef %29, i32 noundef %30)
  br label %31

31:                                               ; preds = %28, %25
  br label %32

32:                                               ; preds = %31
  br label %33

33:                                               ; preds = %32
  br label %34

34:                                               ; preds = %33
  br label %35

35:                                               ; preds = %34
  br label %36

36:                                               ; preds = %35, %21
  call void @llvm.lifetime.end.p0(i64 4, ptr %8) #6
  br label %37

37:                                               ; preds = %36, %2
  %38 = load ptr, ptr %3, align 8
  %39 = getelementptr inbounds nuw %struct.pmi2_job_info, ptr %38, i32 0, i32 9
  %40 = load ptr, ptr %39, align 8
  %41 = call ptr @slurm_hostlist_create(ptr noundef %40)
  store ptr %41, ptr @pmix_stepd_hostlist, align 8
  %42 = load ptr, ptr %3, align 8
  %43 = getelementptr inbounds nuw %struct.pmi2_job_info, ptr %42, i32 0, i32 3
  %44 = load i32, ptr %43, align 8
  store i32 %44, ptr @pmix_stepd_rank, align 4
  %45 = load ptr, ptr %3, align 8
  %46 = getelementptr inbounds nuw %struct.pmi2_job_info, ptr %45, i32 0, i32 2
  %47 = load i32, ptr %46, align 4
  store i32 %47, ptr @pmix_stepd_ranks, align 4
  %48 = load ptr, ptr %3, align 8
  %49 = getelementptr inbounds nuw %struct.pmi2_job_info, ptr %48, i32 0, i32 5
  %50 = load i32, ptr %49, align 8
  store i32 %50, ptr @pmix_app_children, align 4
  call void @llvm.lifetime.start.p0(i64 4, ptr %9) #6
  %51 = load i32, ptr @pmix_stepd_rank, align 4
  %52 = load i32, ptr @pmix_stepd_width, align 4
  %53 = mul nsw i32 %51, %52
  %54 = add nsw i32 %53, 1
  store i32 %54, ptr %9, align 4
  call void @llvm.lifetime.start.p0(i64 4, ptr %10) #6
  %55 = load i32, ptr @pmix_stepd_rank, align 4
  %56 = load i32, ptr @pmix_stepd_width, align 4
  %57 = mul nsw i32 %55, %56
  %58 = load i32, ptr @pmix_stepd_width, align 4
  %59 = add nsw i32 %57, %58
  store i32 %59, ptr %10, align 4
  %60 = load i32, ptr %9, align 4
  %61 = load i32, ptr @pmix_stepd_ranks, align 4
  %62 = icmp sge i32 %60, %61
  br i1 %62, label %63, label %65

63:                                               ; preds = %37
  %64 = load i32, ptr @pmix_stepd_ranks, align 4
  store i32 %64, ptr %9, align 4
  br label %65

65:                                               ; preds = %63, %37
  %66 = load i32, ptr %10, align 4
  %67 = load i32, ptr @pmix_stepd_ranks, align 4
  %68 = icmp sge i32 %66, %67
  br i1 %68, label %69, label %72

69:                                               ; preds = %65
  %70 = load i32, ptr @pmix_stepd_ranks, align 4
  %71 = sub nsw i32 %70, 1
  store i32 %71, ptr %10, align 4
  br label %72

72:                                               ; preds = %69, %65
  %73 = load i32, ptr %10, align 4
  %74 = load i32, ptr %9, align 4
  %75 = sub nsw i32 %73, %74
  %76 = add nsw i32 %75, 1
  store i32 %76, ptr @pmix_stepd_children, align 4
  %77 = load i32, ptr @pmix_app_children, align 4
  %78 = load i32, ptr @pmix_stepd_children, align 4
  %79 = add nsw i32 %77, %78
  store i32 %79, ptr @pmix_ring_children, align 4
  %80 = load i32, ptr @pmix_ring_children, align 4
  %81 = sext i32 %80 to i64
  %82 = call ptr @slurm_xcalloc(i64 noundef %81, i64 noundef 24, i1 noundef zeroext true, i1 noundef zeroext false, ptr noundef @.str.2, i32 noundef 299, ptr noundef @__func__.pmix_ring_init)
  store ptr %82, ptr @pmix_ring_msgs, align 8
  store i32 0, ptr %5, align 4
  br label %83

83:                                               ; preds = %103, %72
  %84 = load i32, ptr %5, align 4
  %85 = load i32, ptr @pmix_ring_children, align 4
  %86 = icmp slt i32 %84, %85
  br i1 %86, label %87, label %106

87:                                               ; preds = %83
  %88 = load ptr, ptr @pmix_ring_msgs, align 8
  %89 = load i32, ptr %5, align 4
  %90 = sext i32 %89 to i64
  %91 = getelementptr inbounds %struct.pmix_ring_msg, ptr %88, i64 %90
  %92 = getelementptr inbounds nuw %struct.pmix_ring_msg, ptr %91, i32 0, i32 0
  store i32 0, ptr %92, align 8
  %93 = load ptr, ptr @pmix_ring_msgs, align 8
  %94 = load i32, ptr %5, align 4
  %95 = sext i32 %94 to i64
  %96 = getelementptr inbounds %struct.pmix_ring_msg, ptr %93, i64 %95
  %97 = getelementptr inbounds nuw %struct.pmix_ring_msg, ptr %96, i32 0, i32 1
  store ptr null, ptr %97, align 8
  %98 = load ptr, ptr @pmix_ring_msgs, align 8
  %99 = load i32, ptr %5, align 4
  %100 = sext i32 %99 to i64
  %101 = getelementptr inbounds %struct.pmix_ring_msg, ptr %98, i64 %100
  %102 = getelementptr inbounds nuw %struct.pmix_ring_msg, ptr %101, i32 0, i32 2
  store ptr null, ptr %102, align 8
  br label %103

103:                                              ; preds = %87
  %104 = load i32, ptr %5, align 4
  %105 = add nsw i32 %104, 1
  store i32 %105, ptr %5, align 4
  br label %83, !llvm.loop !8

106:                                              ; preds = %83
  store i32 0, ptr @pmix_ring_count, align 4
  %107 = load i32, ptr %6, align 4
  call void @llvm.lifetime.end.p0(i64 4, ptr %10) #6
  call void @llvm.lifetime.end.p0(i64 4, ptr %9) #6
  call void @llvm.lifetime.end.p0(i64 8, ptr %7) #6
  call void @llvm.lifetime.end.p0(i64 4, ptr %6) #6
  call void @llvm.lifetime.end.p0(i64 4, ptr %5) #6
  ret i32 %107
}