; Function Attrs: nounwind uwtable
define dso_local noundef i32 @pmix_ring_init(ptr noundef readonly captures(none) %0, ptr noundef readonly captures(none) %1) local_unnamed_addr #2 {
  %3 = load ptr, ptr %1, align 8
  %4 = tail call ptr @slurm_getenvp(ptr noundef %3, ptr noundef nonnull @.str) #9
  %.not = icmp eq ptr %4, null
  br i1 %.not, label %15, label %5

5:                                                ; preds = %2
  %6 = tail call i64 @strtol(ptr noundef nonnull captures(none) %4, ptr noundef null, i32 noundef 10) #9
  %7 = trunc i64 %6 to i32
  %8 = icmp sgt i32 %7, 1
  br i1 %8, label %9, label %10

9:                                                ; preds = %5
  store i32 %7, ptr @pmix_stepd_width, align 4
  br label %15

10:                                               ; preds = %5
  %11 = tail call i32 @slurm_get_log_level() #9
  %12 = icmp sgt i32 %11, 2
  br i1 %12, label %13, label %15

13:                                               ; preds = %10
  %14 = load i32, ptr @pmix_stepd_width, align 4
  tail call void (i32, ptr, ...) @slurm_log_var(i32 noundef 3, ptr noundef nonnull @.str.1, ptr noundef nonnull @plugin_type, ptr noundef nonnull @__func__.pmix_ring_init, ptr noundef nonnull @.str, i32 noundef %7, i32 noundef %14) #9
  br label %15

15:                                               ; preds = %9, %13, %10, %2
  %16 = getelementptr inbounds nuw i8, ptr %0, i64 64
  %17 = load ptr, ptr %16, align 8
  %18 = tail call ptr @slurm_hostlist_create(ptr noundef %17) #9
  store ptr %18, ptr @pmix_stepd_hostlist, align 8
  %19 = getelementptr inbounds nuw i8, ptr %0, i64 32
  %20 = load i32, ptr %19, align 8
  store i32 %20, ptr @pmix_stepd_rank, align 4
  %21 = getelementptr inbounds nuw i8, ptr %0, i64 28
  %22 = load i32, ptr %21, align 4
  %23 = getelementptr inbounds nuw i8, ptr %0, i64 40
  %24 = load i32, ptr %23, align 8
  store i32 %24, ptr @pmix_app_children, align 4
  %25 = load i32, ptr @pmix_stepd_width, align 4
  %26 = mul nsw i32 %25, %20
  %27 = add nsw i32 %26, 1
  %28 = add nsw i32 %26, %25
  %spec.select = tail call i32 @llvm.smin.i32(i32 %27, i32 %22)
  %.not28 = icmp slt i32 %28, %22
  %29 = add nsw i32 %22, -1
  %.0 = select i1 %.not28, i32 %28, i32 %29
  %30 = sub nsw i32 %.0, %spec.select
  %31 = add nsw i32 %30, 1
  store i32 %31, ptr @pmix_stepd_children, align 4
  %32 = add nsw i32 %31, %24
  store i32 %32, ptr @pmix_ring_children, align 4
  %33 = sext i32 %32 to i64
  %34 = tail call ptr @slurm_xcalloc(i64 noundef %33, i64 noundef 24, i1 noundef zeroext true, i1 noundef zeroext false, ptr noundef nonnull @.str.2, i32 noundef 299, ptr noundef nonnull @__func__.pmix_ring_init) #9
  store ptr %34, ptr @pmix_ring_msgs, align 8
  %35 = load i32, ptr @pmix_ring_children, align 4
  %36 = icmp sgt i32 %35, 0
  br i1 %36, label %.lr.ph.preheader, label %._crit_edge

.lr.ph.preheader:                                 ; preds = %15
  %wide.trip.count = zext nneg i32 %35 to i64
  br label %.lr.ph

.lr.ph:                                           ; preds = %.lr.ph.preheader, %.lr.ph
  %indvars.iv = phi i64 [ 0, %.lr.ph.preheader ], [ %indvars.iv.next, %.lr.ph ]
  %37 = load ptr, ptr @pmix_ring_msgs, align 8
  %38 = getelementptr inbounds nuw %struct.pmix_ring_msg, ptr %37, i64 %indvars.iv
  store i32 0, ptr %38, align 8
  %39 = load ptr, ptr @pmix_ring_msgs, align 8
  %40 = getelementptr inbounds nuw %struct.pmix_ring_msg, ptr %39, i64 %indvars.iv, i32 1
  store ptr null, ptr %40, align 8
  %41 = load ptr, ptr @pmix_ring_msgs, align 8
  %42 = getelementptr inbounds nuw %struct.pmix_ring_msg, ptr %41, i64 %indvars.iv, i32 2
  store ptr null, ptr %42, align 8
  %indvars.iv.next = add nuw nsw i64 %indvars.iv, 1
  %exitcond.not = icmp eq i64 %indvars.iv.next, %wide.trip.count
  br i1 %exitcond.not, label %._crit_edge, label %.lr.ph, !llvm.loop !8

._crit_edge:                                      ; preds = %.lr.ph, %15
  store i32 0, ptr @pmix_ring_count, align 4
  ret i32 0
}